target datalayout = "e-m:e-p270:32:32-p271:32:32-p272:64:64-i64:64-i128:128-f80:128-n8:16:32:64-S128"
target triple = "x86_64-pc-linux-gnu"

%struct.Vector4 = type { float, float, float, float }

; Function Attrs: nounwind uwtable
define { <2 x float>, <2 x float> } @Vector4Scale(<2 x float> %0, <2 x float> %1, float noundef %2) #9 {
  %4 = alloca %struct.Vector4, align 4
  %5 = alloca %struct.Vector4, align 4
  %6 = alloca float, align 4
  %7 = getelementptr inbounds nuw { <2 x float>, <2 x float> }, ptr %5, i32 0, i32 0
  store <2 x float> %0, ptr %7, align 4
  %8 = getelementptr inbounds nuw { <2 x float>, <2 x float> }, ptr %5, i32 0, i32 1
  store <2 x float> %1, ptr %8, align 4
  store float %2, ptr %6, align 4
  %9 = getelementptr inbounds nuw %struct.Vector4, ptr %4, i32 0, i32 0
  %10 = getelementptr inbounds nuw %struct.Vector4, ptr %5, i32 0, i32 0
  %11 = load float, ptr %10, align 4
  %12 = load float, ptr %6, align 4
  %13 = fmul float %11, %12
  store float %13, ptr %9, align 4
  %14 = getelementptr inbounds nuw %struct.Vector4, ptr %4, i32 0, i32 1
  %15 = getelementptr inbounds nuw %struct.Vector4, ptr %5, i32 0, i32 1
  %16 = load float, ptr %15, align 4
  %17 = load float, ptr %6, align 4
  %18 = fmul float %16, %17
  store float %18, ptr %14, align 4
  %19 = getelementptr inbounds nuw %struct.Vector4, ptr %4, i32 0, i32 2
  %20 = getelementptr inbounds nuw %struct.Vector4, ptr %5, i32 0, i32 2
  %21 = load float, ptr %20, align 4
  %22 = load float, ptr %6, align 4
  %23 = fmul float %21, %22
  store float %23, ptr %19, align 4
  %24 = getelementptr inbounds nuw %struct.Vector4, ptr %4, i32 0, i32 3
  %25 = getelementptr inbounds nuw %struct.Vector4, ptr %5, i32 0, i32 3
  %26 = load float, ptr %25, align 4
  %27 = load float, ptr %6, align 4
  %28 = fmul float %26, %27
  store float %28, ptr %24, align 4
  %29 = load { <2 x float>, <2 x float> }, ptr %4, align 4
  ret { <2 x float>, <2 x float> } %29
}