; Function Attrs: mustprogress nofree norecurse nosync nounwind willreturn memory(none) uwtable
define { <2 x float>, <2 x float> } @Vector4Scale(<2 x float> %0, <2 x float> %1, float noundef %2) local_unnamed_addr #17 {
  %.sroa.0.0.vec.extract = extractelement <2 x float> %0, i64 0
  %4 = fmul float %.sroa.0.0.vec.extract, %2
  %.sroa.04.0.vec.insert = insertelement <2 x float> poison, float %4, i64 0
  %.sroa.0.4.vec.extract = extractelement <2 x float> %0, i64 1
  %5 = fmul float %.sroa.0.4.vec.extract, %2
  %.sroa.04.4.vec.insert = insertelement <2 x float> %.sroa.04.0.vec.insert, float %5, i64 1
  %.sroa.3.8.vec.extract = extractelement <2 x float> %1, i64 0
  %6 = fmul float %.sroa.3.8.vec.extract, %2
  %.sroa.36.8.vec.insert = insertelement <2 x float> poison, float %6, i64 0
  %.sroa.3.12.vec.extract = extractelement <2 x float> %1, i64 1
  %7 = fmul float %.sroa.3.12.vec.extract, %2
  %.sroa.36.12.vec.insert = insertelement <2 x float> %.sroa.36.8.vec.insert, float %7, i64 1
  %.fca.0.insert = insertvalue { <2 x float>, <2 x float> } poison, <2 x float> %.sroa.04.4.vec.insert, 0
  %.fca.1.insert = insertvalue { <2 x float>, <2 x float> } %.fca.0.insert, <2 x float> %.sroa.36.12.vec.insert, 1
  ret { <2 x float>, <2 x float> } %.fca.1.insert
}